target datalayout = "e-m:e-p270:32:32-p271:32:32-p272:64:64-i64:64-i128:128-f80:128-n8:16:32:64-S128"
target triple = "x86_64-pc-linux-gnu"

%struct.tcpinfo = type { i32, i32, i32, i32, i16, i16 }

; Function Attrs: nounwind uwtable
define internal i32 @exp_pdu_tcp_dissector_data_size(ptr noundef %0, ptr noundef %1) #0 {
  %3 = alloca ptr, align 8
  %4 = alloca ptr, align 8
  store ptr %0, ptr %3, align 8
  store ptr %1, ptr %4, align 8
  ret i32 23
}

; Function Attrs: nounwind uwtable
define internal void @phton32(ptr noundef %0, i32 noundef %1) #0 {
  %3 = alloca ptr, align 8
  %4 = alloca i32, align 4
  store ptr %0, ptr %3, align 8
  store i32 %1, ptr %4, align 4
  %5 = load i32, ptr %4, align 4
  %6 = lshr i32 %5, 24
  %7 = trunc i32 %6 to i8
  %8 = load ptr, ptr %3, align 8
  %9 = getelementptr i8, ptr %8, i64 0
  store i8 %7, ptr %9, align 1
  %10 = load i32, ptr %4, align 4
  %11 = lshr i32 %10, 16
  %12 = trunc i32 %11 to i8
  %13 = load ptr, ptr %3, align 8
  %14 = getelementptr i8, ptr %13, i64 1
  store i8 %12, ptr %14, align 1
  %15 = load i32, ptr %4, align 4
  %16 = lshr i32 %15, 8
  %17 = trunc i32 %16 to i8
  %18 = load ptr, ptr %3, align 8
  %19 = getelementptr i8, ptr %18, i64 2
  store i8 %17, ptr %19, align 1
  %20 = load i32, ptr %4, align 4
  %21 = lshr i32 %20, 0
  %22 = trunc i32 %21 to i8
  %23 = load ptr, ptr %3, align 8
  %24 = getelementptr i8, ptr %23, i64 3
  store i8 %22, ptr %24, align 1
  ret void
}

; Function Attrs: nounwind uwtable
define internal void @phton16(ptr noundef %0, i16 noundef zeroext %1) #0 {
  %3 = alloca ptr, align 8
  %4 = alloca i16, align 2
  store ptr %0, ptr %3, align 8
  store i16 %1, ptr %4, align 2
  %5 = load i16, ptr %4, align 2
  %6 = zext i16 %5 to i32
  %7 = ashr i32 %6, 8
  %8 = trunc i32 %7 to i8
  %9 = load ptr, ptr %3, align 8
  %10 = getelementptr i8, ptr %9, i64 0
  store i8 %8, ptr %10, align 1
  %11 = load i16, ptr %4, align 2
  %12 = zext i16 %11 to i32
  %13 = ashr i32 %12, 0
  %14 = trunc i32 %13 to i8
  %15 = load ptr, ptr %3, align 8
  %16 = getelementptr i8, ptr %15, i64 1
  store i8 %14, ptr %16, align 1
  ret void
}

; Function Attrs: nounwind uwtable
define internal i32 @exp_pdu_tcp_dissector_data_populate_data(ptr noundef %0, ptr noundef %1, ptr noundef %2, i32 noundef %3) #0 {
  %5 = alloca ptr, align 8
  %6 = alloca ptr, align 8
  %7 = alloca ptr, align 8
  %8 = alloca i32, align 4
  %9 = alloca ptr, align 8
  store ptr %0, ptr %5, align 8
  store ptr %1, ptr %6, align 8
  store ptr %2, ptr %7, align 8
  store i32 %3, ptr %8, align 4
  %10 = load ptr, ptr %6, align 8
  store ptr %10, ptr %9, align 8
  %11 = load ptr, ptr %7, align 8
  %12 = getelementptr i8, ptr %11, i64 0
  call void @phton16(ptr noundef %12, i16 noundef zeroext 34)
  %13 = load ptr, ptr %7, align 8
  %14 = getelementptr i8, ptr %13, i64 2
  call void @phton16(ptr noundef %14, i16 noundef zeroext 19)
  %15 = load ptr, ptr %7, align 8
  %16 = getelementptr i8, ptr %15, i64 4
  call void @phton16(ptr noundef %16, i16 noundef zeroext 1)
  %17 = load ptr, ptr %7, align 8
  %18 = getelementptr i8, ptr %17, i64 6
  %19 = load ptr, ptr %9, align 8
  %20 = getelementptr inbounds %struct.tcpinfo, ptr %19, i32 0, i32 0
  %21 = load i32, ptr %20, align 4
  call void @phton32(ptr noundef %18, i32 noundef %21)
  %22 = load ptr, ptr %7, align 8
  %23 = getelementptr i8, ptr %22, i64 10
  %24 = load ptr, ptr %9, align 8
  %25 = getelementptr inbounds %struct.tcpinfo, ptr %24, i32 0, i32 1
  %26 = load i32, ptr %25, align 4
  call void @phton32(ptr noundef %23, i32 noundef %26)
  %27 = load ptr, ptr %7, align 8
  %28 = getelementptr i8, ptr %27, i64 14
  %29 = load ptr, ptr %9, align 8
  %30 = getelementptr inbounds %struct.tcpinfo, ptr %29, i32 0, i32 2
  %31 = load i32, ptr %30, align 4
  call void @phton32(ptr noundef %28, i32 noundef %31)
  %32 = load ptr, ptr %9, align 8
  %33 = getelementptr inbounds %struct.tcpinfo, ptr %32, i32 0, i32 3
  %34 = load i32, ptr %33, align 4
  %35 = trunc i32 %34 to i8
  %36 = load ptr, ptr %7, align 8
  %37 = getelementptr i8, ptr %36, i64 18
  store i8 %35, ptr %37, align 1
  %38 = load ptr, ptr %7, align 8
  %39 = getelementptr i8, ptr %38, i64 19
  %40 = load ptr, ptr %9, align 8
  %41 = getelementptr inbounds %struct.tcpinfo, ptr %40, i32 0, i32 4
  %42 = load i16, ptr %41, align 4
  call void @phton16(ptr noundef %39, i16 noundef zeroext %42)
  %43 = load ptr, ptr %7, align 8
  %44 = getelementptr i8, ptr %43, i64 21
  %45 = load ptr, ptr %9, align 8
  %46 = getelementptr inbounds %struct.tcpinfo, ptr %45, i32 0, i32 5
  %47 = load i16, ptr %46, align 2
  call void @phton16(ptr noundef %44, i16 noundef zeroext %47)
  %48 = load ptr, ptr %5, align 8
  %49 = load ptr, ptr %6, align 8
  %50 = call i32 @exp_pdu_tcp_dissector_data_size(ptr noundef %48, ptr noundef %49)
  ret i32 %50
}