; Function Attrs: mustprogress nofree norecurse nosync nounwind willreturn memory(argmem: readwrite) uwtable
define internal noundef i32 @exp_pdu_tcp_dissector_data_populate_data(ptr readnone captures(none) %0, ptr noundef readonly captures(none) %1, ptr noundef writeonly captures(none) initializes((0, 23)) %2, i32 %3) #12 {
  store i8 0, ptr %2, align 1
  %5 = getelementptr i8, ptr %2, i64 1
  store i8 34, ptr %5, align 1
  %6 = getelementptr i8, ptr %2, i64 2
  store i8 0, ptr %6, align 1
  %7 = getelementptr i8, ptr %2, i64 3
  store i8 19, ptr %7, align 1
  %8 = getelementptr i8, ptr %2, i64 4
  store i8 0, ptr %8, align 1
  %9 = getelementptr i8, ptr %2, i64 5
  store i8 1, ptr %9, align 1
  %10 = getelementptr i8, ptr %2, i64 6
  %11 = load i32, ptr %1, align 4
  %12 = lshr i32 %11, 24
  %13 = trunc nuw i32 %12 to i8
  store i8 %13, ptr %10, align 1
  %14 = lshr i32 %11, 16
  %15 = trunc i32 %14 to i8
  %16 = getelementptr i8, ptr %2, i64 7
  store i8 %15, ptr %16, align 1
  %17 = lshr i32 %11, 8
  %18 = trunc i32 %17 to i8
  %19 = getelementptr i8, ptr %2, i64 8
  store i8 %18, ptr %19, align 1
  %20 = trunc i32 %11 to i8
  %21 = getelementptr i8, ptr %2, i64 9
  store i8 %20, ptr %21, align 1
  %22 = getelementptr i8, ptr %2, i64 10
  %23 = getelementptr inbounds nuw i8, ptr %1, i64 4
  %24 = load i32, ptr %23, align 4
  %25 = lshr i32 %24, 24
  %26 = trunc nuw i32 %25 to i8
  store i8 %26, ptr %22, align 1
  %27 = lshr i32 %24, 16
  %28 = trunc i32 %27 to i8
  %29 = getelementptr i8, ptr %2, i64 11
  store i8 %28, ptr %29, align 1
  %30 = lshr i32 %24, 8
  %31 = trunc i32 %30 to i8
  %32 = getelementptr i8, ptr %2, i64 12
  store i8 %31, ptr %32, align 1
  %33 = trunc i32 %24 to i8
  %34 = getelementptr i8, ptr %2, i64 13
  store i8 %33, ptr %34, align 1
  %35 = getelementptr i8, ptr %2, i64 14
  %36 = getelementptr inbounds nuw i8, ptr %1, i64 8
  %37 = load i32, ptr %36, align 4
  %38 = lshr i32 %37, 24
  %39 = trunc nuw i32 %38 to i8
  store i8 %39, ptr %35, align 1
  %40 = lshr i32 %37, 16
  %41 = trunc i32 %40 to i8
  %42 = getelementptr i8, ptr %2, i64 15
  store i8 %41, ptr %42, align 1
  %43 = lshr i32 %37, 8
  %44 = trunc i32 %43 to i8
  %45 = getelementptr i8, ptr %2, i64 16
  store i8 %44, ptr %45, align 1
  %46 = trunc i32 %37 to i8
  %47 = getelementptr i8, ptr %2, i64 17
  store i8 %46, ptr %47, align 1
  %48 = getelementptr inbounds nuw i8, ptr %1, i64 12
  %49 = load i32, ptr %48, align 4
  %50 = trunc i32 %49 to i8
  %51 = getelementptr i8, ptr %2, i64 18
  store i8 %50, ptr %51, align 1
  %52 = getelementptr i8, ptr %2, i64 19
  %53 = getelementptr inbounds nuw i8, ptr %1, i64 16
  %54 = load i16, ptr %53, align 4
  %55 = lshr i16 %54, 8
  %56 = trunc nuw i16 %55 to i8
  store i8 %56, ptr %52, align 1
  %57 = trunc i16 %54 to i8
  %58 = getelementptr i8, ptr %2, i64 20
  store i8 %57, ptr %58, align 1
  %59 = getelementptr i8, ptr %2, i64 21
  %60 = getelementptr inbounds nuw i8, ptr %1, i64 18
  %61 = load i16, ptr %60, align 2
  %62 = lshr i16 %61, 8
  %63 = trunc nuw i16 %62 to i8
  store i8 %63, ptr %59, align 1
  %64 = trunc i16 %61 to i8
  %65 = getelementptr i8, ptr %2, i64 22
  store i8 %64, ptr %65, align 1
  ret i32 23
}